; ModuleID = '50/2048.c'
source_filename = "50/2048.c"
target datalayout = "e-m:e-p270:32:32-p271:32:32-p272:64:64-i64:64-f80:128-n8:16:32:64-S128"
target triple = "x86_64-pc-linux-gnu"

@__const.main.b = private unnamed_addr constant [12 x i32] [i32 0, i32 31, i32 28, i32 31, i32 30, i32 31, i32 30, i32 31, i32 31, i32 30, i32 31, i32 30], align 16
@.str = private unnamed_addr constant [3 x i8] c"%d\00", align 1
@.str.1 = private unnamed_addr constant [4 x i8] c"%d\0A\00", align 1

; Function Attrs: noinline nounwind uwtable
define dso_local i32 @main() #0 {
  %1 = alloca i32, align 4
  %2 = alloca i32, align 4
  %3 = alloca i32, align 4
  %4 = alloca i32, align 4
  %5 = alloca i32, align 4
  %6 = alloca [12 x i32], align 16
  store i32 0, i32* %1, align 4
  %7 = bitcast [12 x i32]* %6 to i8*
  call void @llvm.memcpy.p0i8.p0i8.i64(i8* align 16 %7, i8* align 16 bitcast ([12 x i32]* @__const.main.b to i8*), i64 48, i1 false)
  %8 = call i32 (i8*, ...) @__isoc99_scanf(i8* getelementptr inbounds ([3 x i8], [3 x i8]* @.str, i64 0, i64 0), i32* %2)
  %9 = load i32, i32* %2, align 4
  %10 = icmp eq i32 %9, 7
  br i1 %10, label %11, label %13

11:                                               ; preds = %0
  %12 = call i32 (i8*, ...) @printf(i8* getelementptr inbounds ([4 x i8], [4 x i8]* @.str.1, i64 0, i64 0), i32 1)
  br label %13

13:                                               ; preds = %11, %0
  store i32 1, i32* %3, align 4
  br label %14

14:                                               ; preds = %50, %13
  %15 = load i32, i32* %3, align 4
  %16 = icmp sle i32 %15, 11
  br i1 %16, label %17, label %53

17:                                               ; preds = %14
  store i32 0, i32* %5, align 4
  store i32 1, i32* %4, align 4
  br label %18

18:                                               ; preds = %29, %17
  %19 = load i32, i32* %4, align 4
  %20 = load i32, i32* %3, align 4
  %21 = icmp sle i32 %19, %20
  br i1 %21, label %22, label %32

22:                                               ; preds = %18
  %23 = load i32, i32* %5, align 4
  %24 = load i32, i32* %4, align 4
  %25 = sext i32 %24 to i64
  %26 = getelementptr inbounds [12 x i32], [12 x i32]* %6, i64 0, i64 %25
  %27 = load i32, i32* %26, align 4
  %28 = add nsw i32 %23, %27
  store i32 %28, i32* %5, align 4
  br label %29

29:                                               ; preds = %22
  %30 = load i32, i32* %4, align 4
  %31 = add nsw i32 %30, 1
  store i32 %31, i32* %4, align 4
  br label %18

32:                                               ; preds = %18
  %33 = load i32, i32* %5, align 4
  %34 = add nsw i32 %33, 12
  %35 = srem i32 %34, 7
  %36 = load i32, i32* %2, align 4
  %37 = add nsw i32 %35, %36
  %38 = icmp eq i32 %37, 5
  br i1 %38, label %46, label %39

39:                                               ; preds = %32
  %40 = load i32, i32* %5, align 4
  %41 = add nsw i32 %40, 12
  %42 = srem i32 %41, 7
  %43 = load i32, i32* %2, align 4
  %44 = add nsw i32 %42, %43
  %45 = icmp eq i32 %44, 12
  br i1 %45, label %46, label %50

46:                                               ; preds = %39, %32
  %47 = load i32, i32* %3, align 4
  %48 = add nsw i32 %47, 1
  %49 = call i32 (i8*, ...) @printf(i8* getelementptr inbounds ([4 x i8], [4 x i8]* @.str.1, i64 0, i64 0), i32 %48)
  br label %50

50:                                               ; preds = %46, %39
  %51 = load i32, i32* %3, align 4
  %52 = add nsw i32 %51, 1
  store i32 %52, i32* %3, align 4
  br label %14

53:                                               ; preds = %14
  ret i32 0
}

; Function Attrs: argmemonly nounwind willreturn
declare void @llvm.memcpy.p0i8.p0i8.i64(i8* noalias nocapture writeonly, i8* noalias nocapture readonly, i64, i1 immarg) #1

declare dso_local i32 @__isoc99_scanf(i8*, ...) #2

declare dso_local i32 @printf(i8*, ...) #2


!llvm.module.flags = !{!0}
!llvm.ident = !{!1}

!0 = !{i32 1, !"wchar_size", i32 4}
!1 = !{!"clang version 10.0.0-4ubuntu1 "}
